target datalayout = "e-m:e-p270:32:32-p271:32:32-p272:64:64-i64:64-i128:128-f80:128-n8:16:32:64-S128"
target triple = "x86_64-pc-linux-gnu"

@.str.14 = private unnamed_addr constant [8 x i8] c"IO Data\00", align 1
@hf_pn_pa_profile_value_8bit = internal global i32 0, align 4
@hf_pn_pa_profile_status = internal global i32 0, align 4
@hf_pn_pa_profile_value_16bit = internal global i32 0, align 4
@hf_pn_pa_profile_value_float = internal global i32 0, align 4

; Function Attrs: null_pointer_is_valid sspstrong uwtable
define hidden i32 @dissect_pn_pa_profile_data(ptr noundef %0, i32 noundef %1, ptr noundef %2, ptr noundef %3, i32 noundef %4, ptr noundef %5) #0 {
  %7 = alloca ptr, align 8
  %8 = alloca i32, align 4
  %9 = alloca ptr, align 8
  %10 = alloca ptr, align 8
  %11 = alloca i32, align 4
  %12 = alloca ptr, align 8
  store ptr %0, ptr %7, align 8
  store i32 %1, ptr %8, align 4
  store ptr %2, ptr %9, align 8
  store ptr %3, ptr %10, align 8
  store i32 %4, ptr %11, align 4
  store ptr %5, ptr %12, align 8
  %13 = load i32, ptr %11, align 4
  %14 = icmp eq i32 %13, 2
  br i1 %14, label %15, label %28

15:                                               ; preds = %6
  %16 = load ptr, ptr %10, align 8
  %17 = load i32, ptr @hf_pn_pa_profile_value_8bit, align 4
  %18 = load ptr, ptr %7, align 8
  %19 = load i32, ptr %8, align 4
  %20 = call ptr @proto_tree_add_item(ptr noundef %16, i32 noundef %17, ptr noundef %18, i32 noundef %19, i32 noundef 1, i32 noundef 0)
  %21 = load ptr, ptr %7, align 8
  %22 = load i32, ptr %8, align 4
  %23 = add i32 %22, 1
  %24 = load ptr, ptr %9, align 8
  %25 = load ptr, ptr %10, align 8
  %26 = load i32, ptr @hf_pn_pa_profile_status, align 4
  %27 = call i32 @dissect_pn_pa_profile_status(ptr noundef %21, i32 noundef %23, ptr noundef %24, ptr noundef %25, i32 noundef %26)
  br label %69

28:                                               ; preds = %6
  %29 = load i32, ptr %11, align 4
  %30 = icmp eq i32 %29, 3
  br i1 %30, label %31, label %44

31:                                               ; preds = %28
  %32 = load ptr, ptr %10, align 8
  %33 = load i32, ptr @hf_pn_pa_profile_value_16bit, align 4
  %34 = load ptr, ptr %7, align 8
  %35 = load i32, ptr %8, align 4
  %36 = call ptr @proto_tree_add_item(ptr noundef %32, i32 noundef %33, ptr noundef %34, i32 noundef %35, i32 noundef 2, i32 noundef 0)
  %37 = load ptr, ptr %7, align 8
  %38 = load i32, ptr %8, align 4
  %39 = add i32 %38, 2
  %40 = load ptr, ptr %9, align 8
  %41 = load ptr, ptr %10, align 8
  %42 = load i32, ptr @hf_pn_pa_profile_status, align 4
  %43 = call i32 @dissect_pn_pa_profile_status(ptr noundef %37, i32 noundef %39, ptr noundef %40, ptr noundef %41, i32 noundef %42)
  br label %68

44:                                               ; preds = %28
  %45 = load i32, ptr %11, align 4
  %46 = icmp eq i32 %45, 5
  br i1 %46, label %47, label %60

47:                                               ; preds = %44
  %48 = load ptr, ptr %10, align 8
  %49 = load i32, ptr @hf_pn_pa_profile_value_float, align 4
  %50 = load ptr, ptr %7, align 8
  %51 = load i32, ptr %8, align 4
  %52 = call ptr @proto_tree_add_item(ptr noundef %48, i32 noundef %49, ptr noundef %50, i32 noundef %51, i32 noundef 4, i32 noundef 0)
  %53 = load ptr, ptr %7, align 8
  %54 = load i32, ptr %8, align 4
  %55 = add i32 %54, 4
  %56 = load ptr, ptr %9, align 8
  %57 = load ptr, ptr %10, align 8
  %58 = load i32, ptr @hf_pn_pa_profile_status, align 4
  %59 = call i32 @dissect_pn_pa_profile_status(ptr noundef %53, i32 noundef %55, ptr noundef %56, ptr noundef %57, i32 noundef %58)
  br label %67

60:                                               ; preds = %44
  %61 = load ptr, ptr %7, align 8
  %62 = load i32, ptr %8, align 4
  %63 = load ptr, ptr %9, align 8
  %64 = load ptr, ptr %10, align 8
  %65 = load i32, ptr %11, align 4
  %66 = call i32 @dissect_pn_user_data(ptr noundef %61, i32 noundef %62, ptr noundef %63, ptr noundef %64, i32 noundef %65, ptr noundef @.str.14)
  br label %67

67:                                               ; preds = %60, %47
  br label %68

68:                                               ; preds = %67, %31
  br label %69

69:                                               ; preds = %68, %15
  %70 = load i32, ptr %8, align 4
  %71 = load i32, ptr %11, align 4
  %72 = add i32 %70, %71
  ret i32 %72
}