; Function Attrs: null_pointer_is_valid sspstrong uwtable
define hidden noundef i32 @dissect_pn_pa_profile_data(ptr noundef %0, i32 noundef %1, ptr noundef %2, ptr noundef %3, i32 noundef %4, ptr readnone captures(none) %5) local_unnamed_addr #0 {
  switch i32 %4, label %22 [
    i32 2, label %7
    i32 3, label %12
    i32 5, label %17
  ]

7:                                                ; preds = %6
  %8 = load i32, ptr @hf_pn_pa_profile_value_8bit, align 4
  %9 = tail call ptr @proto_tree_add_item(ptr noundef %3, i32 noundef %8, ptr noundef %0, i32 noundef %1, i32 noundef 1, i32 noundef 0)
  %10 = add i32 %1, 1
  %11 = load i32, ptr @hf_pn_pa_profile_status, align 4
  tail call fastcc void @dissect_pn_pa_profile_status(ptr noundef %0, i32 noundef %10, ptr noundef %3, i32 noundef %11)
  br label %24

12:                                               ; preds = %6
  %13 = load i32, ptr @hf_pn_pa_profile_value_16bit, align 4
  %14 = tail call ptr @proto_tree_add_item(ptr noundef %3, i32 noundef %13, ptr noundef %0, i32 noundef %1, i32 noundef 2, i32 noundef 0)
  %15 = add i32 %1, 2
  %16 = load i32, ptr @hf_pn_pa_profile_status, align 4
  tail call fastcc void @dissect_pn_pa_profile_status(ptr noundef %0, i32 noundef %15, ptr noundef %3, i32 noundef %16)
  br label %24

17:                                               ; preds = %6
  %18 = load i32, ptr @hf_pn_pa_profile_value_float, align 4
  %19 = tail call ptr @proto_tree_add_item(ptr noundef %3, i32 noundef %18, ptr noundef %0, i32 noundef %1, i32 noundef 4, i32 noundef 0)
  %20 = add i32 %1, 4
  %21 = load i32, ptr @hf_pn_pa_profile_status, align 4
  tail call fastcc void @dissect_pn_pa_profile_status(ptr noundef %0, i32 noundef %20, ptr noundef %3, i32 noundef %21)
  br label %24

22:                                               ; preds = %6
  %23 = tail call i32 @dissect_pn_user_data(ptr noundef %0, i32 noundef %1, ptr noundef %2, ptr noundef %3, i32 noundef %4, ptr noundef nonnull @.str.14)
  br label %24

24:                                               ; preds = %12, %22, %17, %7
  %25 = add i32 %4, %1
  ret i32 %25
}